target datalayout = "e-m:e-p270:32:32-p271:32:32-p272:64:64-i64:64-i128:128-f80:128-n8:16:32:64-S128"
target triple = "x86_64-pc-linux-gnu"

%struct.opj_image = type { i32, i32, i32, i32, i32, i32, ptr, ptr, i32 }
%struct.opj_cp = type { i16, i32, i32, i32, i32, ptr, i32, i32, i32, ptr, ptr, i32, i32, ptr, ptr, ptr, i32, i32, i32, ptr, %union.anon, i32, i8 }
%union.anon = type { %struct.opj_encoding_param }
%struct.opj_encoding_param = type { i32, i32, ptr, i8, i32, i8 }
%struct.opj_tcp = type { i32, i32, i32, i32, i32, [100 x float], i32, [32 x %struct.opj_poc], i32, ptr, ptr, ptr, i32, i32, [100 x float], ptr, i32, i32, ptr, i32, ptr, ptr, ptr, ptr, i32, i32, ptr, i32, i32, i8 }
%struct.opj_poc = type { i32, i32, i32, i32, i32, i32, i32, i32, i32, i32, [5 x i8], i32, i32, i32, i32, i32, i32, i32, i32, i32, i32, i32, i32, i32, i32, i32, i32, i32, i32, i32, i32, i32, i32, i32, i32, i32 }
%struct.opj_pi_iterator = type { i8, ptr, i32, i32, i32, i32, i32, i32, i32, i32, i32, i32, %struct.opj_poc, i32, ptr, i32, i32, i32, i32, i32, i32, i32, i32, ptr }
%struct.opj_pi_comp = type { i32, i32, i32, ptr }
%struct.opj_tccp = type { i32, i32, i32, i32, i32, i32, i32, [97 x %struct.opj_stepsize], i32, i32, [33 x i32], [33 x i32], i32 }
%struct.opj_stepsize = type { i32, i32 }

; Function Attrs: nounwind uwtable
define hidden void @opj_pi_destroy(ptr noundef %0, i32 noundef %1) #0 {
  %3 = alloca ptr, align 8
  %4 = alloca i32, align 4
  %5 = alloca i32, align 4
  %6 = alloca i32, align 4
  %7 = alloca ptr, align 8
  %8 = alloca ptr, align 8
  store ptr %0, ptr %3, align 8, !tbaa !18
  store i32 %1, ptr %4, align 4, !tbaa !10
  call void @llvm.lifetime.start.p0(i64 4, ptr %5) #4
  call void @llvm.lifetime.start.p0(i64 4, ptr %6) #4
  call void @llvm.lifetime.start.p0(i64 8, ptr %7) #4
  %9 = load ptr, ptr %3, align 8, !tbaa !18
  store ptr %9, ptr %7, align 8, !tbaa !18
  %10 = load ptr, ptr %3, align 8, !tbaa !18
  %11 = icmp ne ptr %10, null
  br i1 %11, label %12, label %74

12:                                               ; preds = %2
  %13 = load ptr, ptr %3, align 8, !tbaa !18
  %14 = getelementptr inbounds nuw %struct.opj_pi_iterator, ptr %13, i32 0, i32 1
  %15 = load ptr, ptr %14, align 8, !tbaa !44
  %16 = icmp ne ptr %15, null
  br i1 %16, label %17, label %23

17:                                               ; preds = %12
  %18 = load ptr, ptr %3, align 8, !tbaa !18
  %19 = getelementptr inbounds nuw %struct.opj_pi_iterator, ptr %18, i32 0, i32 1
  %20 = load ptr, ptr %19, align 8, !tbaa !44
  call void @opj_free(ptr noundef %20)
  %21 = load ptr, ptr %3, align 8, !tbaa !18
  %22 = getelementptr inbounds nuw %struct.opj_pi_iterator, ptr %21, i32 0, i32 1
  store ptr null, ptr %22, align 8, !tbaa !44
  br label %23

23:                                               ; preds = %17, %12
  store i32 0, ptr %6, align 4, !tbaa !10
  br label %24

24:                                               ; preds = %69, %23
  %25 = load i32, ptr %6, align 4, !tbaa !10
  %26 = load i32, ptr %4, align 4, !tbaa !10
  %27 = icmp ult i32 %25, %26
  br i1 %27, label %28, label %72

28:                                               ; preds = %24
  %29 = load ptr, ptr %7, align 8, !tbaa !18
  %30 = getelementptr inbounds nuw %struct.opj_pi_iterator, ptr %29, i32 0, i32 14
  %31 = load ptr, ptr %30, align 8, !tbaa !50
  %32 = icmp ne ptr %31, null
  br i1 %32, label %33, label %66

33:                                               ; preds = %28
  call void @llvm.lifetime.start.p0(i64 8, ptr %8) #4
  %34 = load ptr, ptr %7, align 8, !tbaa !18
  %35 = getelementptr inbounds nuw %struct.opj_pi_iterator, ptr %34, i32 0, i32 14
  %36 = load ptr, ptr %35, align 8, !tbaa !50
  store ptr %36, ptr %8, align 8, !tbaa !24
  store i32 0, ptr %5, align 4, !tbaa !10
  br label %37

37:                                               ; preds = %57, %33
  %38 = load i32, ptr %5, align 4, !tbaa !10
  %39 = load ptr, ptr %7, align 8, !tbaa !18
  %40 = getelementptr inbounds nuw %struct.opj_pi_iterator, ptr %39, i32 0, i32 13
  %41 = load i32, ptr %40, align 4, !tbaa !82
  %42 = icmp ult i32 %38, %41
  br i1 %42, label %43, label %60

43:                                               ; preds = %37
  %44 = load ptr, ptr %8, align 8, !tbaa !24
  %45 = getelementptr inbounds nuw %struct.opj_pi_comp, ptr %44, i32 0, i32 3
  %46 = load ptr, ptr %45, align 8, !tbaa !61
  %47 = icmp ne ptr %46, null
  br i1 %47, label %48, label %54

48:                                               ; preds = %43
  %49 = load ptr, ptr %8, align 8, !tbaa !24
  %50 = getelementptr inbounds nuw %struct.opj_pi_comp, ptr %49, i32 0, i32 3
  %51 = load ptr, ptr %50, align 8, !tbaa !61
  call void @opj_free(ptr noundef %51)
  %52 = load ptr, ptr %8, align 8, !tbaa !24
  %53 = getelementptr inbounds nuw %struct.opj_pi_comp, ptr %52, i32 0, i32 3
  store ptr null, ptr %53, align 8, !tbaa !61
  br label %54

54:                                               ; preds = %48, %43
  %55 = load ptr, ptr %8, align 8, !tbaa !24
  %56 = getelementptr inbounds nuw %struct.opj_pi_comp, ptr %55, i32 1
  store ptr %56, ptr %8, align 8, !tbaa !24
  br label %57

57:                                               ; preds = %54
  %58 = load i32, ptr %5, align 4, !tbaa !10
  %59 = add i32 %58, 1
  store i32 %59, ptr %5, align 4, !tbaa !10
  br label %37, !llvm.loop !98

60:                                               ; preds = %37
  %61 = load ptr, ptr %7, align 8, !tbaa !18
  %62 = getelementptr inbounds nuw %struct.opj_pi_iterator, ptr %61, i32 0, i32 14
  %63 = load ptr, ptr %62, align 8, !tbaa !50
  call void @opj_free(ptr noundef %63)
  %64 = load ptr, ptr %7, align 8, !tbaa !18
  %65 = getelementptr inbounds nuw %struct.opj_pi_iterator, ptr %64, i32 0, i32 14
  store ptr null, ptr %65, align 8, !tbaa !50
  call void @llvm.lifetime.end.p0(i64 8, ptr %8) #4
  br label %66

66:                                               ; preds = %60, %28
  %67 = load ptr, ptr %7, align 8, !tbaa !18
  %68 = getelementptr inbounds nuw %struct.opj_pi_iterator, ptr %67, i32 1
  store ptr %68, ptr %7, align 8, !tbaa !18
  br label %69

69:                                               ; preds = %66
  %70 = load i32, ptr %6, align 4, !tbaa !10
  %71 = add i32 %70, 1
  store i32 %71, ptr %6, align 4, !tbaa !10
  br label %24, !llvm.loop !99

72:                                               ; preds = %24
  %73 = load ptr, ptr %3, align 8, !tbaa !18
  call void @opj_free(ptr noundef %73)
  br label %74

74:                                               ; preds = %72, %2
  call void @llvm.lifetime.end.p0(i64 8, ptr %7) #4
  call void @llvm.lifetime.end.p0(i64 4, ptr %6) #4
  call void @llvm.lifetime.end.p0(i64 4, ptr %5) #4
  ret void
}

; Function Attrs: nounwind uwtable
define internal ptr @opj_pi_create(ptr noundef %0, ptr noundef %1, i32 noundef %2, ptr noundef %3) #0 {
  %5 = alloca ptr, align 8
  %6 = alloca ptr, align 8
  %7 = alloca ptr, align 8
  %8 = alloca i32, align 4
  %9 = alloca ptr, align 8
  %10 = alloca i32, align 4
  %11 = alloca i32, align 4
  %12 = alloca i32, align 4
  %13 = alloca ptr, align 8
  %14 = alloca ptr, align 8
  %15 = alloca ptr, align 8
  %16 = alloca ptr, align 8
  %17 = alloca i32, align 4
  %18 = alloca ptr, align 8
  store ptr %0, ptr %6, align 8, !tbaa !3
  store ptr %1, ptr %7, align 8, !tbaa !8
  store i32 %2, ptr %8, align 4, !tbaa !10
  store ptr %3, ptr %9, align 8, !tbaa !12
  call void @llvm.lifetime.start.p0(i64 4, ptr %10) #4
  call void @llvm.lifetime.start.p0(i64 4, ptr %11) #4
  call void @llvm.lifetime.start.p0(i64 4, ptr %12) #4
  call void @llvm.lifetime.start.p0(i64 8, ptr %13) #4
  store ptr null, ptr %13, align 8, !tbaa !18
  call void @llvm.lifetime.start.p0(i64 8, ptr %14) #4
  store ptr null, ptr %14, align 8, !tbaa !20
  call void @llvm.lifetime.start.p0(i64 8, ptr %15) #4
  store ptr null, ptr %15, align 8, !tbaa !22
  call void @llvm.lifetime.start.p0(i64 8, ptr %16) #4
  store ptr null, ptr %16, align 8, !tbaa !18
  %19 = load ptr, ptr %7, align 8, !tbaa !8
  %20 = getelementptr inbounds nuw %struct.opj_cp, ptr %19, i32 0, i32 19
  %21 = load ptr, ptr %20, align 8, !tbaa !29
  %22 = load i32, ptr %8, align 4, !tbaa !10
  %23 = zext i32 %22 to i64
  %24 = getelementptr inbounds nuw %struct.opj_tcp, ptr %21, i64 %23
  store ptr %24, ptr %14, align 8, !tbaa !20
  %25 = load ptr, ptr %14, align 8, !tbaa !20
  %26 = getelementptr inbounds nuw %struct.opj_tcp, ptr %25, i32 0, i32 6
  %27 = load i32, ptr %26, align 4, !tbaa !33
  %28 = add i32 %27, 1
  store i32 %28, ptr %12, align 4, !tbaa !10
  %29 = load i32, ptr %12, align 4, !tbaa !10
  %30 = zext i32 %29 to i64
  %31 = call ptr @opj_calloc(i64 noundef %30, i64 noundef 256)
  store ptr %31, ptr %13, align 8, !tbaa !18
  %32 = load ptr, ptr %13, align 8, !tbaa !18
  %33 = icmp ne ptr %32, null
  br i1 %33, label %35, label %34

34:                                               ; preds = %4
  store ptr null, ptr %5, align 8
  store i32 1, ptr %17, align 4
  br label %118

35:                                               ; preds = %4
  %36 = load ptr, ptr %13, align 8, !tbaa !18
  store ptr %36, ptr %16, align 8, !tbaa !18
  store i32 0, ptr %10, align 4, !tbaa !10
  br label %37

37:                                               ; preds = %113, %35
  %38 = load i32, ptr %10, align 4, !tbaa !10
  %39 = load i32, ptr %12, align 4, !tbaa !10
  %40 = icmp ult i32 %38, %39
  br i1 %40, label %41, label %116

41:                                               ; preds = %37
  %42 = load ptr, ptr %9, align 8, !tbaa !12
  %43 = load ptr, ptr %16, align 8, !tbaa !18
  %44 = getelementptr inbounds nuw %struct.opj_pi_iterator, ptr %43, i32 0, i32 23
  store ptr %42, ptr %44, align 8, !tbaa !81
  %45 = load ptr, ptr %6, align 8, !tbaa !3
  %46 = getelementptr inbounds nuw %struct.opj_image, ptr %45, i32 0, i32 4
  %47 = load i32, ptr %46, align 8, !tbaa !14
  %48 = zext i32 %47 to i64
  %49 = call ptr @opj_calloc(i64 noundef %48, i64 noundef 24)
  %50 = load ptr, ptr %16, align 8, !tbaa !18
  %51 = getelementptr inbounds nuw %struct.opj_pi_iterator, ptr %50, i32 0, i32 14
  store ptr %49, ptr %51, align 8, !tbaa !50
  %52 = load ptr, ptr %16, align 8, !tbaa !18
  %53 = getelementptr inbounds nuw %struct.opj_pi_iterator, ptr %52, i32 0, i32 14
  %54 = load ptr, ptr %53, align 8, !tbaa !50
  %55 = icmp ne ptr %54, null
  br i1 %55, label %59, label %56

56:                                               ; preds = %41
  %57 = load ptr, ptr %13, align 8, !tbaa !18
  %58 = load i32, ptr %12, align 4, !tbaa !10
  call void @opj_pi_destroy(ptr noundef %57, i32 noundef %58)
  store ptr null, ptr %5, align 8
  store i32 1, ptr %17, align 4
  br label %118

59:                                               ; preds = %41
  %60 = load ptr, ptr %6, align 8, !tbaa !3
  %61 = getelementptr inbounds nuw %struct.opj_image, ptr %60, i32 0, i32 4
  %62 = load i32, ptr %61, align 8, !tbaa !14
  %63 = load ptr, ptr %16, align 8, !tbaa !18
  %64 = getelementptr inbounds nuw %struct.opj_pi_iterator, ptr %63, i32 0, i32 13
  store i32 %62, ptr %64, align 4, !tbaa !82
  store i32 0, ptr %11, align 4, !tbaa !10
  br label %65

65:                                               ; preds = %107, %59
  %66 = load i32, ptr %11, align 4, !tbaa !10
  %67 = load ptr, ptr %6, align 8, !tbaa !3
  %68 = getelementptr inbounds nuw %struct.opj_image, ptr %67, i32 0, i32 4
  %69 = load i32, ptr %68, align 8, !tbaa !14
  %70 = icmp ult i32 %66, %69
  br i1 %70, label %71, label %110

71:                                               ; preds = %65
  call void @llvm.lifetime.start.p0(i64 8, ptr %18) #4
  %72 = load ptr, ptr %16, align 8, !tbaa !18
  %73 = getelementptr inbounds nuw %struct.opj_pi_iterator, ptr %72, i32 0, i32 14
  %74 = load ptr, ptr %73, align 8, !tbaa !50
  %75 = load i32, ptr %11, align 4, !tbaa !10
  %76 = zext i32 %75 to i64
  %77 = getelementptr inbounds nuw %struct.opj_pi_comp, ptr %74, i64 %76
  store ptr %77, ptr %18, align 8, !tbaa !24
  %78 = load ptr, ptr %14, align 8, !tbaa !20
  %79 = getelementptr inbounds nuw %struct.opj_tcp, ptr %78, i32 0, i32 15
  %80 = load ptr, ptr %79, align 8, !tbaa !52
  %81 = load i32, ptr %11, align 4, !tbaa !10
  %82 = zext i32 %81 to i64
  %83 = getelementptr inbounds nuw %struct.opj_tccp, ptr %80, i64 %82
  store ptr %83, ptr %15, align 8, !tbaa !22
  %84 = load ptr, ptr %15, align 8, !tbaa !22
  %85 = getelementptr inbounds nuw %struct.opj_tccp, ptr %84, i32 0, i32 1
  %86 = load i32, ptr %85, align 4, !tbaa !83
  %87 = zext i32 %86 to i64
  %88 = call ptr @opj_calloc(i64 noundef %87, i64 noundef 16)
  %89 = load ptr, ptr %18, align 8, !tbaa !24
  %90 = getelementptr inbounds nuw %struct.opj_pi_comp, ptr %89, i32 0, i32 3
  store ptr %88, ptr %90, align 8, !tbaa !61
  %91 = load ptr, ptr %18, align 8, !tbaa !24
  %92 = getelementptr inbounds nuw %struct.opj_pi_comp, ptr %91, i32 0, i32 3
  %93 = load ptr, ptr %92, align 8, !tbaa !61
  %94 = icmp ne ptr %93, null
  br i1 %94, label %98, label %95

95:                                               ; preds = %71
  %96 = load ptr, ptr %13, align 8, !tbaa !18
  %97 = load i32, ptr %12, align 4, !tbaa !10
  call void @opj_pi_destroy(ptr noundef %96, i32 noundef %97)
  store ptr null, ptr %5, align 8
  store i32 1, ptr %17, align 4
  br label %104

98:                                               ; preds = %71
  %99 = load ptr, ptr %15, align 8, !tbaa !22
  %100 = getelementptr inbounds nuw %struct.opj_tccp, ptr %99, i32 0, i32 1
  %101 = load i32, ptr %100, align 4, !tbaa !83
  %102 = load ptr, ptr %18, align 8, !tbaa !24
  %103 = getelementptr inbounds nuw %struct.opj_pi_comp, ptr %102, i32 0, i32 2
  store i32 %101, ptr %103, align 8, !tbaa !70
  store i32 0, ptr %17, align 4
  br label %104

104:                                              ; preds = %98, %95
  call void @llvm.lifetime.end.p0(i64 8, ptr %18) #4
  %105 = load i32, ptr %17, align 4
  switch i32 %105, label %118 [
    i32 0, label %106
  ]

106:                                              ; preds = %104
  br label %107

107:                                              ; preds = %106
  %108 = load i32, ptr %11, align 4, !tbaa !10
  %109 = add i32 %108, 1
  store i32 %109, ptr %11, align 4, !tbaa !10
  br label %65, !llvm.loop !85

110:                                              ; preds = %65
  %111 = load ptr, ptr %16, align 8, !tbaa !18
  %112 = getelementptr inbounds nuw %struct.opj_pi_iterator, ptr %111, i32 1
  store ptr %112, ptr %16, align 8, !tbaa !18
  br label %113

113:                                              ; preds = %110
  %114 = load i32, ptr %10, align 4, !tbaa !10
  %115 = add i32 %114, 1
  store i32 %115, ptr %10, align 4, !tbaa !10
  br label %37, !llvm.loop !86

116:                                              ; preds = %37
  %117 = load ptr, ptr %13, align 8, !tbaa !18
  store ptr %117, ptr %5, align 8
  store i32 1, ptr %17, align 4
  br label %118

118:                                              ; preds = %116, %104, %56, %34
  call void @llvm.lifetime.end.p0(i64 8, ptr %16) #4
  call void @llvm.lifetime.end.p0(i64 8, ptr %15) #4
  call void @llvm.lifetime.end.p0(i64 8, ptr %14) #4
  call void @llvm.lifetime.end.p0(i64 8, ptr %13) #4
  call void @llvm.lifetime.end.p0(i64 4, ptr %12) #4
  call void @llvm.lifetime.end.p0(i64 4, ptr %11) #4
  call void @llvm.lifetime.end.p0(i64 4, ptr %10) #4
  %119 = load ptr, ptr %5, align 8
  ret ptr %119
}