; Function Attrs: nounwind uwtable
define internal fastcc ptr @opj_pi_create(ptr noundef readonly captures(none) %0, ptr readonly captures(none) %.112.val, i32 noundef %1, ptr noundef %2) unnamed_addr #0 {
  %4 = zext i32 %1 to i64
  %5 = getelementptr inbounds nuw %struct.opj_tcp, ptr %.112.val, i64 %4
  %6 = getelementptr inbounds nuw i8, ptr %5, i64 420
  %7 = load i32, ptr %6, align 4, !tbaa !16
  %8 = add i32 %7, 1
  %9 = zext i32 %8 to i64
  %10 = tail call ptr @opj_calloc(i64 noundef %9, i64 noundef 256) #5
  %.not = icmp eq ptr %10, null
  br i1 %.not, label %.loopexit, label %.preheader

.preheader:                                       ; preds = %3
  %.not5 = icmp eq i32 %8, 0
  br i1 %.not5, label %.loopexit, label %.lr.ph4

.lr.ph4:                                          ; preds = %.preheader
  %11 = getelementptr inbounds nuw i8, ptr %0, i64 16
  %12 = getelementptr inbounds nuw i8, ptr %5, i64 5600
  %.pre = load i32, ptr %11, align 8, !tbaa !3
  br label %13

13:                                               ; preds = %.lr.ph4, %._crit_edge
  %14 = phi i32 [ %.pre, %.lr.ph4 ], [ %77, %._crit_edge ]
  %.0363 = phi ptr [ %10, %.lr.ph4 ], [ %78, %._crit_edge ]
  %.0372 = phi i32 [ 0, %.lr.ph4 ], [ %79, %._crit_edge ]
  %15 = getelementptr inbounds nuw i8, ptr %.0363, i64 248
  store ptr %2, ptr %15, align 8, !tbaa !87
  %16 = zext i32 %14 to i64
  %17 = tail call ptr @opj_calloc(i64 noundef %16, i64 noundef 24) #5
  %18 = getelementptr inbounds nuw i8, ptr %.0363, i64 208
  store ptr %17, ptr %18, align 8, !tbaa !36
  %.not41 = icmp eq ptr %17, null
  br i1 %.not41, label %19, label %40

19:                                               ; preds = %13
  %20 = getelementptr inbounds nuw i8, ptr %10, i64 8
  %21 = load ptr, ptr %20, align 8, !tbaa !28
  %.not27.i = icmp eq ptr %21, null
  br i1 %.not27.i, label %.lr.ph35.i.preheader, label %22

22:                                               ; preds = %19
  tail call void @opj_free(ptr noundef nonnull %21) #5
  store ptr null, ptr %20, align 8, !tbaa !28
  br label %.lr.ph35.i.preheader

.lr.ph35.i.preheader:                             ; preds = %22, %19
  br label %.lr.ph35.i

.lr.ph35.i:                                       ; preds = %.lr.ph35.i.preheader, %37
  %.02033.i = phi ptr [ %38, %37 ], [ %10, %.lr.ph35.i.preheader ]
  %.02132.i = phi i32 [ %39, %37 ], [ 0, %.lr.ph35.i.preheader ]
  %23 = getelementptr inbounds nuw i8, ptr %.02033.i, i64 208
  %24 = load ptr, ptr %23, align 8, !tbaa !36
  %.not28.i = icmp eq ptr %24, null
  br i1 %.not28.i, label %37, label %.preheader.i

.preheader.i:                                     ; preds = %.lr.ph35.i
  %25 = getelementptr inbounds nuw i8, ptr %.02033.i, i64 204
  %26 = load i32, ptr %25, align 4, !tbaa !37
  %.not38.i = icmp eq i32 %26, 0
  br i1 %.not38.i, label %._crit_edge.i, label %.lr.ph.i

.lr.ph.i:                                         ; preds = %.preheader.i, %31
  %27 = phi i32 [ %32, %31 ], [ %26, %.preheader.i ]
  %.031.i = phi ptr [ %33, %31 ], [ %24, %.preheader.i ]
  %.02230.i = phi i32 [ %34, %31 ], [ 0, %.preheader.i ]
  %28 = getelementptr inbounds nuw i8, ptr %.031.i, i64 16
  %29 = load ptr, ptr %28, align 8, !tbaa !38
  %.not29.i = icmp eq ptr %29, null
  br i1 %.not29.i, label %31, label %30

30:                                               ; preds = %.lr.ph.i
  tail call void @opj_free(ptr noundef nonnull %29) #5
  store ptr null, ptr %28, align 8, !tbaa !38
  %.pre.i = load i32, ptr %25, align 4, !tbaa !37
  br label %31

31:                                               ; preds = %30, %.lr.ph.i
  %32 = phi i32 [ %.pre.i, %30 ], [ %27, %.lr.ph.i ]
  %33 = getelementptr inbounds nuw i8, ptr %.031.i, i64 24
  %34 = add nuw i32 %.02230.i, 1
  %35 = icmp ult i32 %34, %32
  br i1 %35, label %.lr.ph.i, label %._crit_edge.loopexit.i, !llvm.loop !41

._crit_edge.loopexit.i:                           ; preds = %31
  %.pre39.i = load ptr, ptr %23, align 8, !tbaa !36
  br label %._crit_edge.i

._crit_edge.i:                                    ; preds = %._crit_edge.loopexit.i, %.preheader.i
  %36 = phi ptr [ %.pre39.i, %._crit_edge.loopexit.i ], [ %24, %.preheader.i ]
  tail call void @opj_free(ptr noundef %36) #5
  store ptr null, ptr %23, align 8, !tbaa !36
  br label %37

37:                                               ; preds = %._crit_edge.i, %.lr.ph35.i
  %38 = getelementptr inbounds nuw i8, ptr %.02033.i, i64 256
  %39 = add nuw i32 %.02132.i, 1
  %exitcond.not.i = icmp eq i32 %.02132.i, %7
  br i1 %exitcond.not.i, label %.loopexit.sink.split, label %.lr.ph35.i, !llvm.loop !42

40:                                               ; preds = %13
  %41 = load i32, ptr %11, align 8, !tbaa !3
  %42 = getelementptr inbounds nuw i8, ptr %.0363, i64 204
  store i32 %41, ptr %42, align 4, !tbaa !37
  %.not6 = icmp eq i32 %41, 0
  br i1 %.not6, label %._crit_edge, label %.lr.ph

.lr.ph:                                           ; preds = %40, %.thread
  %indvars.iv = phi i64 [ %indvars.iv.next, %.thread ], [ 0, %40 ]
  %43 = load ptr, ptr %18, align 8, !tbaa !36
  %44 = getelementptr inbounds nuw %struct.opj_pi_comp, ptr %43, i64 %indvars.iv
  %45 = load ptr, ptr %12, align 8, !tbaa !88
  %46 = getelementptr inbounds nuw %struct.opj_tccp, ptr %45, i64 %indvars.iv, i32 1
  %47 = load i32, ptr %46, align 4, !tbaa !89
  %48 = zext i32 %47 to i64
  %49 = tail call ptr @opj_calloc(i64 noundef %48, i64 noundef 16) #5
  %50 = getelementptr inbounds nuw i8, ptr %44, i64 16
  store ptr %49, ptr %50, align 8, !tbaa !38
  %.not42.not = icmp eq ptr %49, null
  br i1 %.not42.not, label %51, label %.thread

51:                                               ; preds = %.lr.ph
  %52 = getelementptr inbounds nuw i8, ptr %10, i64 8
  %53 = load ptr, ptr %52, align 8, !tbaa !28
  %.not27.i44 = icmp eq ptr %53, null
  br i1 %.not27.i44, label %.lr.ph35.i46.preheader, label %54

54:                                               ; preds = %51
  tail call void @opj_free(ptr noundef nonnull %53) #5
  store ptr null, ptr %52, align 8, !tbaa !28
  br label %.lr.ph35.i46.preheader

.lr.ph35.i46.preheader:                           ; preds = %54, %51
  br label %.lr.ph35.i46

.lr.ph35.i46:                                     ; preds = %.lr.ph35.i46.preheader, %69
  %.02033.i47 = phi ptr [ %70, %69 ], [ %10, %.lr.ph35.i46.preheader ]
  %.02132.i48 = phi i32 [ %71, %69 ], [ 0, %.lr.ph35.i46.preheader ]
  %55 = getelementptr inbounds nuw i8, ptr %.02033.i47, i64 208
  %56 = load ptr, ptr %55, align 8, !tbaa !36
  %.not28.i49 = icmp eq ptr %56, null
  br i1 %.not28.i49, label %69, label %.preheader.i50

.preheader.i50:                                   ; preds = %.lr.ph35.i46
  %57 = getelementptr inbounds nuw i8, ptr %.02033.i47, i64 204
  %58 = load i32, ptr %57, align 4, !tbaa !37
  %.not38.i51 = icmp eq i32 %58, 0
  br i1 %.not38.i51, label %._crit_edge.i59, label %.lr.ph.i52

.lr.ph.i52:                                       ; preds = %.preheader.i50, %63
  %59 = phi i32 [ %64, %63 ], [ %58, %.preheader.i50 ]
  %.031.i53 = phi ptr [ %65, %63 ], [ %56, %.preheader.i50 ]
  %.02230.i54 = phi i32 [ %66, %63 ], [ 0, %.preheader.i50 ]
  %60 = getelementptr inbounds nuw i8, ptr %.031.i53, i64 16
  %61 = load ptr, ptr %60, align 8, !tbaa !38
  %.not29.i55 = icmp eq ptr %61, null
  br i1 %.not29.i55, label %63, label %62

62:                                               ; preds = %.lr.ph.i52
  tail call void @opj_free(ptr noundef nonnull %61) #5
  store ptr null, ptr %60, align 8, !tbaa !38
  %.pre.i56 = load i32, ptr %57, align 4, !tbaa !37
  br label %63

63:                                               ; preds = %62, %.lr.ph.i52
  %64 = phi i32 [ %.pre.i56, %62 ], [ %59, %.lr.ph.i52 ]
  %65 = getelementptr inbounds nuw i8, ptr %.031.i53, i64 24
  %66 = add nuw i32 %.02230.i54, 1
  %67 = icmp ult i32 %66, %64
  br i1 %67, label %.lr.ph.i52, label %._crit_edge.loopexit.i57, !llvm.loop !41

._crit_edge.loopexit.i57:                         ; preds = %63
  %.pre39.i58 = load ptr, ptr %55, align 8, !tbaa !36
  br label %._crit_edge.i59

._crit_edge.i59:                                  ; preds = %._crit_edge.loopexit.i57, %.preheader.i50
  %68 = phi ptr [ %.pre39.i58, %._crit_edge.loopexit.i57 ], [ %56, %.preheader.i50 ]
  tail call void @opj_free(ptr noundef %68) #5
  store ptr null, ptr %55, align 8, !tbaa !36
  br label %69

69:                                               ; preds = %._crit_edge.i59, %.lr.ph35.i46
  %70 = getelementptr inbounds nuw i8, ptr %.02033.i47, i64 256
  %71 = add nuw i32 %.02132.i48, 1
  %exitcond.not.i60 = icmp eq i32 %.02132.i48, %7
  br i1 %exitcond.not.i60, label %.loopexit.sink.split, label %.lr.ph35.i46, !llvm.loop !42

.thread:                                          ; preds = %.lr.ph
  %72 = load i32, ptr %46, align 4, !tbaa !89
  %73 = getelementptr inbounds nuw i8, ptr %44, i64 8
  store i32 %72, ptr %73, align 8, !tbaa !57
  %indvars.iv.next = add nuw nsw i64 %indvars.iv, 1
  %74 = load i32, ptr %11, align 8, !tbaa !3
  %75 = zext i32 %74 to i64
  %76 = icmp samesign ult i64 %indvars.iv.next, %75
  br i1 %76, label %.lr.ph, label %._crit_edge, !llvm.loop !91

._crit_edge:                                      ; preds = %.thread, %40
  %77 = phi i32 [ 0, %40 ], [ %74, %.thread ]
  %78 = getelementptr inbounds nuw i8, ptr %.0363, i64 256
  %79 = add nuw i32 %.0372, 1
  %exitcond.not = icmp eq i32 %.0372, %7
  br i1 %exitcond.not, label %.loopexit, label %13, !llvm.loop !92

.loopexit.sink.split:                             ; preds = %69, %37
  tail call void @opj_free(ptr noundef nonnull %10) #5
  br label %.loopexit

.loopexit:                                        ; preds = %._crit_edge, %.loopexit.sink.split, %.preheader, %3
  %.0 = phi ptr [ null, %3 ], [ %10, %.preheader ], [ null, %.loopexit.sink.split ], [ %10, %._crit_edge ]
  ret ptr %.0
}